Certificate:
    Data:
        Version: 3 (0x2)
        Serial Number: 4096 (0x1000)
        Signature Algorithm: ecdsa-with-SHA256
        Issuer: C=ES, ST=MA, L=Madrid, O=eProsima, CN=Identity CA/emailAddress=identity-ca@eprosima.com
        Validity
            Not Before: Feb  7 11:46:14 2026 GMT
            Not After : Feb  6 11:46:14 2031 GMT
        Subject: C=ES, ST=MA, L=Tres Cantos, O=eProsima, CN=fastdds-server
        Subject Public Key Info:
            Public Key Algorithm: id-ecPublicKey
                Public-Key: (256 bit)
                pub:
                    04:61:4d:ea:e0:d0:25:1c:5f:e1:46:8e:55:a4:60:
                    72:5b:7b:2d:42:16:70:6e:af:ae:5b:bf:1a:3e:db:
                    bd:ad:6f:3e:fc:7f:24:c1:98:76:cc:b1:ac:96:54:
                    45:44:f0:50:d3:9a:c0:c7:da:84:9a:16:80:77:53:
                    4c:3c:50:80:bc
                ASN1 OID: prime256v1
                NIST CURVE: P-256
        X509v3 extensions:
            X509v3 Basic Constraints: 
                CA:FALSE
            X509v3 Key Usage: critical
                Digital Signature, Key Agreement
            X509v3 Extended Key Usage: 
                TLS Web Client Authentication, TLS Web Server Authentication
            X509v3 Subject Key Identifier: 
                77:C1:17:00:53:0C:FF:67:A1:12:D6:8C:6B:6B:AE:8A:8D:E7:45:B4
            X509v3 Authority Key Identifier: 
                92:8F:AA:C6:ED:33:D0:9F:E3:B5:86:BC:D0:6A:1D:CF:00:35:BF:AF
    Signature Algorithm: ecdsa-with-SHA256
    Signature Value:
        30:46:02:21:00:a7:db:30:67:72:26:30:ba:06:16:f3:cb:5d:
        f5:a2:b9:ef:4c:8e:da:a6:65:e2:a0:7a:a7:05:49:a4:98:72:
        7c:02:21:00:e9:af:2a:59:73:fd:ec:dd:66:25:bb:7d:b4:aa:
        f6:af:c9:d4:94:29:ae:c7:37:4c:40:b3:e4:78:8d:b9:56:81
-----BEGIN CERTIFICATE-----
MIICRjCCAeugAwIBAgICEAAwCgYIKoZIzj0EAwIwfTELMAkGA1UEBhMCRVMxCzAJ
BgNVBAgMAk1BMQ8wDQYDVQQHDAZNYWRyaWQxETAPBgNVBAoMCGVQcm9zaW1hMRQw
EgYDVQQDDAtJZGVudGl0eSBDQTEnMCUGCSqGSIb3DQEJARYYaWRlbnRpdHktY2FA
ZXByb3NpbWEuY29tMB4XDTI2MDIwNzExNDYxNFoXDTMxMDIwNjExNDYxNFowXDEL
MAkGA1UEBhMCRVMxCzAJBgNVBAgMAk1BMRQwEgYDVQQHDAtUcmVzIENhbnRvczER
MA8GA1UECgwIZVByb3NpbWExFzAVBgNVBAMMDmZhc3RkZHMtc2VydmVyMFkwEwYH
KoZIzj0CAQYIKoZIzj0DAQcDQgAEYU3q4NAlHF/hRo5VpGByW3stQhZwbq+uW78a
Ptu9rW8+/H8kwZh2zLGsllRFRPBQ05rAx9qEmhaAd1NMPFCAvKN8MHowCQYDVR0T
BAIwADAOBgNVHQ8BAf8EBAMCA4gwHQYDVR0lBBYwFAYIKwYBBQUHAwIGCCsGAQUF
BwMBMB0GA1UdDgQWBBR3wRcAUwz/Z6ES1oxra66KjedFtDAfBgNVHSMEGDAWgBSS
j6rG7TPQn+O1hrzQah3PADW/rzAKBggqhkjOPQQDAgNJADBGAiEAp9swZ3ImMLoG
FvPLXfWiue9MjtqmZeKgeqcFSaSYcnwCIQDprypZc/3s3WYlu320qvavydSUKa7H
N0xAs+R4jblWgQ==
-----END CERTIFICATE-----
