Certificate:
    Data:
        Version: 3 (0x2)
        Serial Number: 4103 (0x1007)
        Signature Algorithm: ecdsa-with-SHA256
        Issuer: C=ES, ST=MA, L=Madrid, O=eProsima, CN=Identity CA/emailAddress=identity-ca@eprosima.com
        Validity
            Not Before: Mar 22 19:30:08 2026 GMT
            Not After : Mar 21 19:30:08 2031 GMT
        Subject: C=ES, ST=MA, L=Tres Cantos, O=eProsima, CN=router-final
        Subject Public Key Info:
            Public Key Algorithm: id-ecPublicKey
                Public-Key: (256 bit)
                pub:
                    04:e6:4e:5b:52:54:56:0e:86:d4:4b:fe:e6:b5:0c:
                    38:4a:cd:f9:dd:57:81:4d:f7:8e:73:dc:ef:01:e5:
                    49:b7:80:4a:35:7c:a8:e7:72:9e:c4:90:74:62:c6:
                    cd:d4:b0:c3:57:17:9b:4a:30:f1:42:55:82:15:36:
                    63:0a:ba:55:81
                ASN1 OID: prime256v1
                NIST CURVE: P-256
        X509v3 extensions:
            X509v3 Basic Constraints: 
                CA:FALSE
            X509v3 Key Usage: critical
                Digital Signature, Key Agreement
            X509v3 Extended Key Usage: 
                TLS Web Client Authentication, TLS Web Server Authentication
            X509v3 Subject Key Identifier: 
                32:25:8E:71:07:B7:0F:DE:60:AF:85:14:F0:F7:DC:B7:EB:8E:96:F9
            X509v3 Authority Key Identifier: 
                92:8F:AA:C6:ED:33:D0:9F:E3:B5:86:BC:D0:6A:1D:CF:00:35:BF:AF
    Signature Algorithm: ecdsa-with-SHA256
    Signature Value:
        30:45:02:20:4c:45:c0:f6:7c:ec:5d:4d:e6:20:7e:bb:b9:33:
        f1:25:24:86:91:ee:e0:4f:1e:7a:8e:ea:8e:de:8f:aa:38:f5:
        02:21:00:d7:81:fa:02:a8:7a:62:f4:99:ae:53:f4:03:e7:96:
        db:6c:f8:ab:25:b9:d1:0d:70:2c:6a:75:19:e6:9a:a4:2e
-----BEGIN CERTIFICATE-----
MIICQzCCAemgAwIBAgICEAcwCgYIKoZIzj0EAwIwfTELMAkGA1UEBhMCRVMxCzAJ
BgNVBAgMAk1BMQ8wDQYDVQQHDAZNYWRyaWQxETAPBgNVBAoMCGVQcm9zaW1hMRQw
EgYDVQQDDAtJZGVudGl0eSBDQTEnMCUGCSqGSIb3DQEJARYYaWRlbnRpdHktY2FA
ZXByb3NpbWEuY29tMB4XDTI2MDMyMjE5MzAwOFoXDTMxMDMyMTE5MzAwOFowWjEL
MAkGA1UEBhMCRVMxCzAJBgNVBAgMAk1BMRQwEgYDVQQHDAtUcmVzIENhbnRvczER
MA8GA1UECgwIZVByb3NpbWExFTATBgNVBAMMDHJvdXRlci1maW5hbDBZMBMGByqG
SM49AgEGCCqGSM49AwEHA0IABOZOW1JUVg6G1Ev+5rUMOErN+d1XgU33jnPc7wHl
SbeASjV8qOdynsSQdGLGzdSww1cXm0ow8UJVghU2Ywq6VYGjfDB6MAkGA1UdEwQC
MAAwDgYDVR0PAQH/BAQDAgOIMB0GA1UdJQQWMBQGCCsGAQUFBwMCBggrBgEFBQcD
ATAdBgNVHQ4EFgQUMiWOcQe3D95gr4UU8Pfct+uOlvkwHwYDVR0jBBgwFoAUko+q
xu0z0J/jtYa80GodzwA1v68wCgYIKoZIzj0EAwIDSAAwRQIgTEXA9nzsXU3mIH67
uTPxJSSGke7gTx56juqO3o+qOPUCIQDXgfoCqHpi9JmuU/QD55bbbPirJbnRDXAs
anUZ5pqkLg==
-----END CERTIFICATE-----
