Certificate:
    Data:
        Version: 3 (0x2)
        Serial Number: 4106 (0x100a)
        Signature Algorithm: ecdsa-with-SHA256
        Issuer: C=ES, ST=MA, L=Madrid, O=eProsima, CN=Identity CA/emailAddress=identity-ca@eprosima.com
        Validity
            Not Before: Mar 22 21:56:06 2026 GMT
            Not After : Mar 21 21:56:06 2031 GMT
        Subject: C=ES, ST=MA, L=Tres Cantos, O=eProsima, CN=fastdds-server-final
        Subject Public Key Info:
            Public Key Algorithm: id-ecPublicKey
                Public-Key: (256 bit)
                pub:
                    04:3d:22:ff:03:e5:dc:9e:68:0b:97:a6:2f:d9:d8:
                    d1:34:08:dd:38:2f:f1:d6:e9:53:0d:13:83:e0:ed:
                    ac:b3:15:e9:f8:d8:b2:0d:96:5c:61:81:5e:76:ea:
                    1c:b5:4f:ca:ab:54:fd:53:05:0f:19:21:5f:8b:bd:
                    44:c6:d5:a2:84
                ASN1 OID: prime256v1
                NIST CURVE: P-256
        X509v3 extensions:
            X509v3 Basic Constraints: 
                CA:FALSE
            X509v3 Key Usage: critical
                Digital Signature, Key Agreement
            X509v3 Extended Key Usage: 
                TLS Web Client Authentication, TLS Web Server Authentication
            X509v3 Subject Key Identifier: 
                42:74:DA:F0:F6:65:4A:7B:93:57:7B:BB:AB:E1:DB:E4:8A:D1:99:E7
            X509v3 Authority Key Identifier: 
                92:8F:AA:C6:ED:33:D0:9F:E3:B5:86:BC:D0:6A:1D:CF:00:35:BF:AF
    Signature Algorithm: ecdsa-with-SHA256
    Signature Value:
        30:44:02:20:35:41:0e:d1:d4:47:1f:2f:fd:03:58:52:7a:fd:
        e8:20:0e:27:0e:b7:f5:35:be:3d:5c:04:e6:55:bf:29:4e:76:
        02:20:3a:99:af:f7:7e:43:c3:2e:30:0b:48:34:d6:a1:d0:d6:
        10:88:89:08:59:59:e9:ef:70:b4:d0:e4:ce:76:ba:76
-----BEGIN CERTIFICATE-----
MIICSjCCAfGgAwIBAgICEAowCgYIKoZIzj0EAwIwfTELMAkGA1UEBhMCRVMxCzAJ
BgNVBAgMAk1BMQ8wDQYDVQQHDAZNYWRyaWQxETAPBgNVBAoMCGVQcm9zaW1hMRQw
EgYDVQQDDAtJZGVudGl0eSBDQTEnMCUGCSqGSIb3DQEJARYYaWRlbnRpdHktY2FA
ZXByb3NpbWEuY29tMB4XDTI2MDMyMjIxNTYwNloXDTMxMDMyMTIxNTYwNlowYjEL
MAkGA1UEBhMCRVMxCzAJBgNVBAgMAk1BMRQwEgYDVQQHDAtUcmVzIENhbnRvczER
MA8GA1UECgwIZVByb3NpbWExHTAbBgNVBAMMFGZhc3RkZHMtc2VydmVyLWZpbmFs
MFkwEwYHKoZIzj0CAQYIKoZIzj0DAQcDQgAEPSL/A+XcnmgLl6Yv2djRNAjdOC/x
1ulTDROD4O2ssxXp+NiyDZZcYYFeduoctU/Kq1T9UwUPGSFfi71ExtWihKN8MHow
CQYDVR0TBAIwADAOBgNVHQ8BAf8EBAMCA4gwHQYDVR0lBBYwFAYIKwYBBQUHAwIG
CCsGAQUFBwMBMB0GA1UdDgQWBBRCdNrw9mVKe5NXe7ur4dvkitGZ5zAfBgNVHSME
GDAWgBSSj6rG7TPQn+O1hrzQah3PADW/rzAKBggqhkjOPQQDAgNHADBEAiA1QQ7R
1EcfL/0DWFJ6/eggDicOt/U1vj1cBOZVvylOdgIgOpmv935Dwy4wC0g01qHQ1hCI
iQhZWenvcLTQ5M52unY=
-----END CERTIFICATE-----
