Certificate:
    Data:
        Version: 3 (0x2)
        Serial Number: 4108 (0x100c)
        Signature Algorithm: ecdsa-with-SHA256
        Issuer: C=ES, ST=MA, L=Madrid, O=eProsima, CN=Identity CA/emailAddress=identity-ca@eprosima.com
        Validity
            Not Before: Mar 24 12:51:13 2026 GMT
            Not After : Mar 23 12:51:13 2031 GMT
        Subject: C=ES, ST=MA, L=Tres Cantos, O=eProsima, CN=aggr-mag12
        Subject Public Key Info:
            Public Key Algorithm: rsaEncryption
                Public-Key: (2048 bit)
                Modulus:
                    00:b5:36:de:4d:45:6b:31:c5:8e:27:40:3f:5e:b2:
                    4c:9a:74:a5:8d:03:bd:36:d4:89:b9:ca:ee:c1:d9:
                    3a:cc:23:46:b9:09:86:00:8a:fa:ab:40:8f:d1:90:
                    69:a4:82:25:33:8c:cd:f1:74:99:4b:6f:57:fd:66:
                    42:ab:30:fc:0d:bf:cd:3a:b8:39:81:6f:e4:ee:3c:
                    c4:5d:1d:30:b6:90:76:0a:89:8b:d3:dc:9c:a0:d0:
                    41:5c:09:ac:48:28:d2:2a:92:68:61:a3:d4:3f:ca:
                    e1:d4:7a:ce:66:96:c1:43:e3:93:aa:f9:ec:7f:6a:
                    68:e1:ac:20:18:4d:19:d7:a6:75:3d:f2:b2:4c:9c:
                    d5:c8:af:22:4d:de:0d:4f:a0:f9:69:db:66:47:7a:
                    5e:59:40:81:bf:bf:ac:7a:d5:79:83:4c:90:52:b9:
                    af:1a:f4:ea:00:63:79:78:e3:44:e2:64:98:15:7e:
                    b4:da:09:f4:d8:67:8d:16:5a:63:d6:f9:47:70:0a:
                    20:48:43:e6:2c:42:4b:09:88:23:5f:ac:e0:d6:a0:
                    9d:d5:a5:74:00:9c:57:94:6a:23:a4:d2:b0:9e:dc:
                    f5:37:37:6a:03:b3:cb:65:79:6b:10:2b:ba:66:0d:
                    10:c6:b1:d5:8c:9f:f6:d7:5c:11:66:77:a3:61:11:
                    12:cf
                Exponent: 65537 (0x10001)
        X509v3 extensions:
            X509v3 Basic Constraints: 
                CA:FALSE
            X509v3 Key Usage: critical
                Digital Signature, Key Agreement
            X509v3 Extended Key Usage: 
                TLS Web Client Authentication, TLS Web Server Authentication
            X509v3 Subject Key Identifier: 
                24:53:B7:FB:58:30:34:3D:3A:B7:AA:46:6F:56:EE:D8:6E:84:20:DE
            X509v3 Authority Key Identifier: 
                92:8F:AA:C6:ED:33:D0:9F:E3:B5:86:BC:D0:6A:1D:CF:00:35:BF:AF
    Signature Algorithm: ecdsa-with-SHA256
    Signature Value:
        30:46:02:21:00:d2:f7:6a:36:a5:26:66:40:a0:6c:e5:36:39:
        3e:e3:d7:c0:d6:75:c1:d9:61:35:7d:bc:47:11:9f:2f:7e:5d:
        fe:02:21:00:c0:d2:85:63:67:a8:1a:58:de:05:cf:c1:ba:e1:
        de:45:35:1b:5d:85:66:be:ef:6d:1f:53:f3:77:3a:57:4f:bb
-----BEGIN CERTIFICATE-----
MIIDDTCCArKgAwIBAgICEAwwCgYIKoZIzj0EAwIwfTELMAkGA1UEBhMCRVMxCzAJ
BgNVBAgMAk1BMQ8wDQYDVQQHDAZNYWRyaWQxETAPBgNVBAoMCGVQcm9zaW1hMRQw
EgYDVQQDDAtJZGVudGl0eSBDQTEnMCUGCSqGSIb3DQEJARYYaWRlbnRpdHktY2FA
ZXByb3NpbWEuY29tMB4XDTI2MDMyNDEyNTExM1oXDTMxMDMyMzEyNTExM1owWDEL
MAkGA1UEBhMCRVMxCzAJBgNVBAgMAk1BMRQwEgYDVQQHDAtUcmVzIENhbnRvczER
MA8GA1UECgwIZVByb3NpbWExEzARBgNVBAMMCmFnZ3ItbWFnMTIwggEiMA0GCSqG
SIb3DQEBAQUAA4IBDwAwggEKAoIBAQC1Nt5NRWsxxY4nQD9eskyadKWNA7021Im5
yu7B2TrMI0a5CYYAivqrQI/RkGmkgiUzjM3xdJlLb1f9ZkKrMPwNv806uDmBb+Tu
PMRdHTC2kHYKiYvT3Jyg0EFcCaxIKNIqkmhho9Q/yuHUes5mlsFD45Oq+ex/amjh
rCAYTRnXpnU98rJMnNXIryJN3g1PoPlp22ZHel5ZQIG/v6x61XmDTJBSua8a9OoA
Y3l440TiZJgVfrTaCfTYZ40WWmPW+UdwCiBIQ+YsQksJiCNfrODWoJ3VpXQAnFeU
aiOk0rCe3PU3N2oDs8tleWsQK7pmDRDGsdWMn/bXXBFmd6NhERLPAgMBAAGjfDB6
MAkGA1UdEwQCMAAwDgYDVR0PAQH/BAQDAgOIMB0GA1UdJQQWMBQGCCsGAQUFBwMC
BggrBgEFBQcDATAdBgNVHQ4EFgQUJFO3+1gwND06t6pGb1bu2G6EIN4wHwYDVR0j
BBgwFoAUko+qxu0z0J/jtYa80GodzwA1v68wCgYIKoZIzj0EAwIDSQAwRgIhANL3
ajalJmZAoGzlNjk+49fA1nXB2WE1fbxHEZ8vfl3+AiEAwNKFY2eoGljeBc/BuuHe
RTUbXYVmvu9tH1PzdzpXT7s=
-----END CERTIFICATE-----
