Certificate:
    Data:
        Version: 3 (0x2)
        Serial Number: 4109 (0x100d)
        Signature Algorithm: ecdsa-with-SHA256
        Issuer: C=ES, ST=MA, L=Madrid, O=eProsima, CN=Identity CA/emailAddress=identity-ca@eprosima.com
        Validity
            Not Before: Mar 24 18:33:01 2026 GMT
            Not After : Mar 23 18:33:01 2031 GMT
        Subject: C=ES, ST=MA, L=Tres Cantos, O=eProsima, CN=aggr-mag20
        Subject Public Key Info:
            Public Key Algorithm: rsaEncryption
                Public-Key: (2048 bit)
                Modulus:
                    00:da:05:ba:af:06:53:74:05:2c:17:dc:83:80:e9:
                    33:be:79:8e:83:c2:90:6d:3a:a9:bd:30:c7:b3:04:
                    46:69:06:aa:ef:f9:ff:ea:81:46:ba:1d:e7:2b:71:
                    e7:94:05:36:ae:c8:c1:d4:b2:86:05:ac:fe:ae:e0:
                    6b:c3:b2:36:68:ef:e1:3f:68:8e:29:aa:c9:7b:9f:
                    94:e8:f6:1b:51:f0:5e:a1:6d:8f:e8:85:ea:de:cd:
                    fe:bb:67:c9:b6:f5:3e:6e:4a:8b:81:fa:52:ca:f9:
                    d5:a1:6b:c4:88:b1:75:ee:7e:0a:f0:10:26:f6:c3:
                    af:0c:f6:7b:9d:b7:25:b1:d6:4e:1a:41:3b:d0:2f:
                    3d:b1:19:32:90:8d:55:f7:ee:b8:76:70:14:62:7d:
                    3d:81:10:23:9e:e3:a8:3c:52:90:a1:4d:63:04:6f:
                    d5:45:df:96:06:57:9f:ef:09:1d:16:e1:55:e6:e5:
                    a3:3c:72:23:ed:8c:d3:c8:9a:fe:92:b2:c6:f6:e3:
                    ce:1d:90:e0:08:25:27:c9:d5:0b:1f:7b:8e:fc:98:
                    cd:7a:40:29:76:21:bf:8d:a4:a3:95:99:71:9e:a5:
                    08:34:01:4f:58:b9:cb:01:96:80:29:41:75:68:8f:
                    95:81:91:4c:cd:18:17:47:cf:9a:09:bf:21:d8:4d:
                    11:2b
                Exponent: 65537 (0x10001)
        X509v3 extensions:
            X509v3 Basic Constraints: 
                CA:FALSE
            X509v3 Key Usage: critical
                Digital Signature, Key Agreement
            X509v3 Extended Key Usage: 
                TLS Web Client Authentication, TLS Web Server Authentication
            X509v3 Subject Key Identifier: 
                F3:BF:C1:09:8C:97:7F:05:61:7B:3C:D2:9C:6F:16:BE:B9:4A:BB:89
            X509v3 Authority Key Identifier: 
                92:8F:AA:C6:ED:33:D0:9F:E3:B5:86:BC:D0:6A:1D:CF:00:35:BF:AF
    Signature Algorithm: ecdsa-with-SHA256
    Signature Value:
        30:45:02:21:00:a9:55:0d:ed:a0:82:36:4d:b7:3f:45:72:a0:
        6b:76:a4:f3:5b:31:29:7e:8a:e2:5a:45:5c:c4:0c:86:5a:a8:
        84:02:20:60:3d:0b:81:70:c3:54:58:4f:19:9b:9a:5a:40:90:
        4e:6b:d6:df:93:b1:fa:66:41:2d:16:cd:68:7b:a7:97:21
-----BEGIN CERTIFICATE-----
MIIDDDCCArKgAwIBAgICEA0wCgYIKoZIzj0EAwIwfTELMAkGA1UEBhMCRVMxCzAJ
BgNVBAgMAk1BMQ8wDQYDVQQHDAZNYWRyaWQxETAPBgNVBAoMCGVQcm9zaW1hMRQw
EgYDVQQDDAtJZGVudGl0eSBDQTEnMCUGCSqGSIb3DQEJARYYaWRlbnRpdHktY2FA
ZXByb3NpbWEuY29tMB4XDTI2MDMyNDE4MzMwMVoXDTMxMDMyMzE4MzMwMVowWDEL
MAkGA1UEBhMCRVMxCzAJBgNVBAgMAk1BMRQwEgYDVQQHDAtUcmVzIENhbnRvczER
MA8GA1UECgwIZVByb3NpbWExEzARBgNVBAMMCmFnZ3ItbWFnMjAwggEiMA0GCSqG
SIb3DQEBAQUAA4IBDwAwggEKAoIBAQDaBbqvBlN0BSwX3IOA6TO+eY6DwpBtOqm9
MMezBEZpBqrv+f/qgUa6HecrceeUBTauyMHUsoYFrP6u4GvDsjZo7+E/aI4pqsl7
n5To9htR8F6hbY/oherezf67Z8m29T5uSouB+lLK+dWha8SIsXXufgrwECb2w68M
9nudtyWx1k4aQTvQLz2xGTKQjVX37rh2cBRifT2BECOe46g8UpChTWMEb9VF35YG
V5/vCR0W4VXm5aM8ciPtjNPImv6Sssb2484dkOAIJSfJ1Qsfe478mM16QCl2Ib+N
pKOVmXGepQg0AU9YucsBloApQXVoj5WBkUzNGBdHz5oJvyHYTRErAgMBAAGjfDB6
MAkGA1UdEwQCMAAwDgYDVR0PAQH/BAQDAgOIMB0GA1UdJQQWMBQGCCsGAQUFBwMC
BggrBgEFBQcDATAdBgNVHQ4EFgQU87/BCYyXfwVhezzSnG8WvrlKu4kwHwYDVR0j
BBgwFoAUko+qxu0z0J/jtYa80GodzwA1v68wCgYIKoZIzj0EAwIDSAAwRQIhAKlV
De2ggjZNtz9FcqBrdqTzWzEpforiWkVcxAyGWqiEAiBgPQuBcMNUWE8Zm5paQJBO
a9bfk7H6ZkEtFs1oe6eXIQ==
-----END CERTIFICATE-----
