Certificate:
    Data:
        Version: 3 (0x2)
        Serial Number: 4110 (0x100e)
        Signature Algorithm: ecdsa-with-SHA256
        Issuer: C=ES, ST=MA, L=Madrid, O=eProsima, CN=Identity CA/emailAddress=identity-ca@eprosima.com
        Validity
            Not Before: Mar 24 18:42:35 2026 GMT
            Not After : Mar 23 18:42:35 2031 GMT
        Subject: C=ES, ST=MA, L=Tres Cantos, O=eProsima, CN=sensor-mag20
        Subject Public Key Info:
            Public Key Algorithm: rsaEncryption
                Public-Key: (2048 bit)
                Modulus:
                    00:ae:ed:db:63:c9:22:79:24:df:c6:91:f2:9b:eb:
                    e5:ab:a7:e7:5b:ae:51:b0:a5:54:4d:a4:ef:2f:c4:
                    28:9c:32:12:54:34:d0:2f:50:c2:14:c8:95:fd:f6:
                    0e:27:ee:04:85:b8:4a:88:18:b0:4f:bd:10:03:1d:
                    73:fe:d0:62:63:c0:41:cb:4e:6a:a2:23:49:23:0d:
                    6c:bf:64:8b:8f:e2:9b:a3:de:6e:4c:de:27:b1:03:
                    3e:a0:d5:11:fb:dc:a4:e4:0d:ff:60:30:c9:f2:db:
                    69:3b:e2:20:5b:89:07:e0:88:28:bc:71:7e:f8:b7:
                    29:da:09:40:91:ad:0b:da:98:86:0e:4d:98:de:52:
                    70:8a:39:e9:52:56:f4:bd:cf:5d:19:89:18:db:f3:
                    0b:0b:df:78:c4:4a:55:12:0a:67:d1:27:96:97:66:
                    e1:2b:7b:16:1c:64:99:9a:2a:43:32:23:ea:d9:44:
                    f0:e5:0d:89:e3:9c:f4:f9:0e:85:51:13:88:df:51:
                    a7:4a:3b:05:f4:54:26:0e:19:0e:57:3b:ef:56:61:
                    22:e2:c2:8b:90:41:69:31:db:c8:71:73:a1:83:de:
                    6c:58:a4:5e:13:97:55:28:b1:31:c5:ee:6c:f6:d6:
                    bc:74:e9:b6:8b:ff:af:4f:15:af:90:4c:0f:39:47:
                    c9:11
                Exponent: 65537 (0x10001)
        X509v3 extensions:
            X509v3 Basic Constraints: 
                CA:FALSE
            X509v3 Key Usage: critical
                Digital Signature, Key Agreement
            X509v3 Extended Key Usage: 
                TLS Web Client Authentication, TLS Web Server Authentication
            X509v3 Subject Key Identifier: 
                10:51:F4:3D:35:B9:B5:DB:79:D2:5D:59:B4:2C:7C:EB:2F:5F:B7:DB
            X509v3 Authority Key Identifier: 
                92:8F:AA:C6:ED:33:D0:9F:E3:B5:86:BC:D0:6A:1D:CF:00:35:BF:AF
    Signature Algorithm: ecdsa-with-SHA256
    Signature Value:
        30:45:02:21:00:db:2d:0d:fb:20:b2:3b:71:ee:55:d4:b1:2d:
        af:18:dc:83:56:1e:88:af:b4:cd:4d:52:50:83:4c:fc:d3:79:
        73:02:20:02:12:f2:04:6b:b0:56:a7:89:1f:6f:59:9c:8e:00:
        96:02:3d:97:0a:d2:20:1c:ba:ca:ab:4a:da:12:2a:ad:e3
-----BEGIN CERTIFICATE-----
MIIDDjCCArSgAwIBAgICEA4wCgYIKoZIzj0EAwIwfTELMAkGA1UEBhMCRVMxCzAJ
BgNVBAgMAk1BMQ8wDQYDVQQHDAZNYWRyaWQxETAPBgNVBAoMCGVQcm9zaW1hMRQw
EgYDVQQDDAtJZGVudGl0eSBDQTEnMCUGCSqGSIb3DQEJARYYaWRlbnRpdHktY2FA
ZXByb3NpbWEuY29tMB4XDTI2MDMyNDE4NDIzNVoXDTMxMDMyMzE4NDIzNVowWjEL
MAkGA1UEBhMCRVMxCzAJBgNVBAgMAk1BMRQwEgYDVQQHDAtUcmVzIENhbnRvczER
MA8GA1UECgwIZVByb3NpbWExFTATBgNVBAMMDHNlbnNvci1tYWcyMDCCASIwDQYJ
KoZIhvcNAQEBBQADggEPADCCAQoCggEBAK7t22PJInkk38aR8pvr5aun51uuUbCl
VE2k7y/EKJwyElQ00C9QwhTIlf32DifuBIW4SogYsE+9EAMdc/7QYmPAQctOaqIj
SSMNbL9ki4/im6PebkzeJ7EDPqDVEfvcpOQN/2AwyfLbaTviIFuJB+CIKLxxfvi3
KdoJQJGtC9qYhg5NmN5ScIo56VJW9L3PXRmJGNvzCwvfeMRKVRIKZ9Enlpdm4St7
FhxkmZoqQzIj6tlE8OUNieOc9PkOhVETiN9Rp0o7BfRUJg4ZDlc771ZhIuLCi5BB
aTHbyHFzoYPebFikXhOXVSixMcXubPbWvHTptov/r08Vr5BMDzlHyRECAwEAAaN8
MHowCQYDVR0TBAIwADAOBgNVHQ8BAf8EBAMCA4gwHQYDVR0lBBYwFAYIKwYBBQUH
AwIGCCsGAQUFBwMBMB0GA1UdDgQWBBQQUfQ9Nbm123nSXVm0LHzrL1+32zAfBgNV
HSMEGDAWgBSSj6rG7TPQn+O1hrzQah3PADW/rzAKBggqhkjOPQQDAgNIADBFAiEA
2y0N+yCyO3HuVdSxLa8Y3INWHoivtM1NUlCDTPzTeXMCIAIS8gRrsFaniR9vWZyO
AJYCPZcK0iAcusqrStoSKq3j
-----END CERTIFICATE-----
