Certificate:
    Data:
        Version: 3 (0x2)
        Serial Number: 4111 (0x100f)
        Signature Algorithm: ecdsa-with-SHA256
        Issuer: C=ES, ST=MA, L=Madrid, O=eProsima, CN=Identity CA/emailAddress=identity-ca@eprosima.com
        Validity
            Not Before: Mar 25 18:48:33 2026 GMT
            Not After : Mar 24 18:48:33 2031 GMT
        Subject: C=ES, ST=MA, L=Tres Cantos, O=eProsima, CN=sensor-mag30
        Subject Public Key Info:
            Public Key Algorithm: rsaEncryption
                Public-Key: (2048 bit)
                Modulus:
                    00:da:ce:d8:ad:9d:b1:80:3e:e0:4d:af:26:ca:0e:
                    29:11:04:71:36:6a:ab:1a:96:00:b1:d2:f2:a9:a9:
                    36:24:c2:c7:0b:82:48:4d:cf:20:6f:9f:14:82:dd:
                    69:af:20:f7:01:4c:ac:16:bc:a0:c6:b3:2d:c4:55:
                    13:75:2d:7b:0a:e0:91:1e:5f:d6:81:84:b5:f6:d1:
                    82:78:8d:f9:ce:2e:23:c4:58:a4:a9:ba:70:5c:49:
                    21:e3:68:cc:da:72:25:e1:21:75:d4:a5:a2:7b:ec:
                    8c:02:91:ab:a7:dc:af:00:c0:54:0f:6b:2d:45:f5:
                    4a:56:c2:06:72:d7:36:5a:c9:f9:5f:0a:1f:6c:d3:
                    2b:84:d0:0d:6b:f6:36:93:9c:05:93:18:d5:51:9d:
                    f0:ef:34:bf:0c:05:5d:c1:5e:d4:14:8b:f0:75:b5:
                    20:f9:d7:77:b2:c4:36:5d:ea:c9:b0:ff:58:84:d2:
                    00:bd:86:4b:07:06:e8:6e:88:a3:84:22:89:a6:20:
                    b5:53:bb:d5:a0:e2:c6:97:89:a5:cf:98:55:3b:10:
                    03:b9:2e:96:82:9d:40:5a:03:4e:b6:3c:ae:8f:ff:
                    77:1b:a2:4f:3b:31:4c:c9:0f:95:e5:f2:e4:2e:e7:
                    61:7f:0b:39:ec:62:14:bc:b2:fd:d3:ec:b0:d7:d9:
                    32:f9
                Exponent: 65537 (0x10001)
        X509v3 extensions:
            X509v3 Basic Constraints: 
                CA:FALSE
            X509v3 Key Usage: critical
                Digital Signature, Key Agreement
            X509v3 Extended Key Usage: 
                TLS Web Client Authentication, TLS Web Server Authentication
            X509v3 Subject Key Identifier: 
                35:81:3F:3F:A8:BA:94:D3:60:8E:7B:9F:79:E7:C4:09:8A:1F:E6:61
            X509v3 Authority Key Identifier: 
                92:8F:AA:C6:ED:33:D0:9F:E3:B5:86:BC:D0:6A:1D:CF:00:35:BF:AF
    Signature Algorithm: ecdsa-with-SHA256
    Signature Value:
        30:45:02:20:31:84:b6:b6:34:35:ea:70:e6:76:15:b6:35:96:
        59:34:75:95:6d:6a:1f:5b:91:0b:8d:62:a8:57:00:80:15:8d:
        02:21:00:aa:f9:8e:bf:a0:77:7c:53:c3:e9:eb:08:4a:67:09:
        44:4e:8c:2f:52:2f:f2:a2:8f:e1:2f:86:b0:73:08:50:55
-----BEGIN CERTIFICATE-----
MIIDDjCCArSgAwIBAgICEA8wCgYIKoZIzj0EAwIwfTELMAkGA1UEBhMCRVMxCzAJ
BgNVBAgMAk1BMQ8wDQYDVQQHDAZNYWRyaWQxETAPBgNVBAoMCGVQcm9zaW1hMRQw
EgYDVQQDDAtJZGVudGl0eSBDQTEnMCUGCSqGSIb3DQEJARYYaWRlbnRpdHktY2FA
ZXByb3NpbWEuY29tMB4XDTI2MDMyNTE4NDgzM1oXDTMxMDMyNDE4NDgzM1owWjEL
MAkGA1UEBhMCRVMxCzAJBgNVBAgMAk1BMRQwEgYDVQQHDAtUcmVzIENhbnRvczER
MA8GA1UECgwIZVByb3NpbWExFTATBgNVBAMMDHNlbnNvci1tYWczMDCCASIwDQYJ
KoZIhvcNAQEBBQADggEPADCCAQoCggEBANrO2K2dsYA+4E2vJsoOKREEcTZqqxqW
ALHS8qmpNiTCxwuCSE3PIG+fFILdaa8g9wFMrBa8oMazLcRVE3UtewrgkR5f1oGE
tfbRgniN+c4uI8RYpKm6cFxJIeNozNpyJeEhddSlonvsjAKRq6fcrwDAVA9rLUX1
SlbCBnLXNlrJ+V8KH2zTK4TQDWv2NpOcBZMY1VGd8O80vwwFXcFe1BSL8HW1IPnX
d7LENl3qybD/WITSAL2GSwcG6G6Io4QiiaYgtVO71aDixpeJpc+YVTsQA7kuloKd
QFoDTrY8ro//dxuiTzsxTMkPleXy5C7nYX8LOexiFLyy/dPssNfZMvkCAwEAAaN8
MHowCQYDVR0TBAIwADAOBgNVHQ8BAf8EBAMCA4gwHQYDVR0lBBYwFAYIKwYBBQUH
AwIGCCsGAQUFBwMBMB0GA1UdDgQWBBQ1gT8/qLqU02COe59558QJih/mYTAfBgNV
HSMEGDAWgBSSj6rG7TPQn+O1hrzQah3PADW/rzAKBggqhkjOPQQDAgNIADBFAiAx
hLa2NDXqcOZ2FbY1llk0dZVtah9bkQuNYqhXAIAVjQIhAKr5jr+gd3xTw+nrCEpn
CUROjC9SL/Kij+EvhrBzCFBV
-----END CERTIFICATE-----
