Certificate:
    Data:
        Version: 3 (0x2)
        Serial Number: 4112 (0x1010)
        Signature Algorithm: ecdsa-with-SHA256
        Issuer: C=ES, ST=MA, L=Madrid, O=eProsima, CN=Identity CA/emailAddress=identity-ca@eprosima.com
        Validity
            Not Before: Mar 25 18:48:33 2026 GMT
            Not After : Mar 24 18:48:33 2031 GMT
        Subject: C=ES, ST=MA, L=Tres Cantos, O=eProsima, CN=aggr-mag30
        Subject Public Key Info:
            Public Key Algorithm: rsaEncryption
                Public-Key: (2048 bit)
                Modulus:
                    00:d6:16:50:74:78:8f:46:67:19:8d:95:64:31:ce:
                    62:fc:2f:f6:b7:af:cd:24:91:2e:7b:16:1d:36:b7:
                    15:4d:73:3f:a4:32:28:35:3c:e3:c9:3d:d2:ac:b9:
                    71:86:d8:ed:09:97:31:55:a8:ee:eb:87:60:e5:4f:
                    e4:51:fc:a4:95:d7:74:75:ac:f1:4b:be:bf:2f:cc:
                    cc:ac:67:f0:43:da:24:64:97:59:dd:e9:8f:f4:dd:
                    c1:84:59:fc:ee:69:96:f2:77:19:46:68:c9:80:10:
                    23:05:3c:ea:3b:0a:3d:90:22:e7:fa:74:f7:c5:f6:
                    76:05:d0:76:5d:eb:35:5c:87:18:3a:ce:db:86:6d:
                    db:83:3e:62:fd:b9:7f:0c:24:23:b6:ae:da:7f:03:
                    90:5b:ac:d3:88:a5:f2:06:79:4e:32:7a:1d:e5:28:
                    e5:a6:40:12:58:53:c9:a2:14:fc:1b:63:7f:d1:ef:
                    f4:d0:06:6c:19:3a:ea:80:03:20:16:bf:1c:00:61:
                    78:ce:8c:3d:17:80:fd:1a:08:b4:19:c9:e1:5c:2a:
                    38:5e:53:62:1e:ad:ba:c8:66:83:60:17:03:b1:9f:
                    e3:f0:b2:53:26:ab:87:a2:6e:42:52:df:99:4e:4a:
                    85:8a:e5:cd:41:20:c6:14:f2:92:ff:8e:3b:40:e6:
                    7e:9f
                Exponent: 65537 (0x10001)
        X509v3 extensions:
            X509v3 Basic Constraints: 
                CA:FALSE
            X509v3 Key Usage: critical
                Digital Signature, Key Agreement
            X509v3 Extended Key Usage: 
                TLS Web Client Authentication, TLS Web Server Authentication
            X509v3 Subject Key Identifier: 
                AF:26:89:63:AE:8D:47:A4:7F:F7:8A:30:E4:98:19:BD:5A:33:B5:F7
            X509v3 Authority Key Identifier: 
                92:8F:AA:C6:ED:33:D0:9F:E3:B5:86:BC:D0:6A:1D:CF:00:35:BF:AF
    Signature Algorithm: ecdsa-with-SHA256
    Signature Value:
        30:44:02:20:2f:37:45:73:08:78:71:f1:05:eb:a0:3b:0b:c1:
        29:06:8e:28:0e:b6:75:69:38:d1:82:d1:7c:8b:eb:90:00:27:
        02:20:7f:fc:27:2c:35:4c:1a:18:47:83:e6:75:d5:d7:30:e3:
        7f:1e:2d:9b:24:07:e2:df:1c:01:a4:09:c9:66:88:fa
-----BEGIN CERTIFICATE-----
MIIDCzCCArKgAwIBAgICEBAwCgYIKoZIzj0EAwIwfTELMAkGA1UEBhMCRVMxCzAJ
BgNVBAgMAk1BMQ8wDQYDVQQHDAZNYWRyaWQxETAPBgNVBAoMCGVQcm9zaW1hMRQw
EgYDVQQDDAtJZGVudGl0eSBDQTEnMCUGCSqGSIb3DQEJARYYaWRlbnRpdHktY2FA
ZXByb3NpbWEuY29tMB4XDTI2MDMyNTE4NDgzM1oXDTMxMDMyNDE4NDgzM1owWDEL
MAkGA1UEBhMCRVMxCzAJBgNVBAgMAk1BMRQwEgYDVQQHDAtUcmVzIENhbnRvczER
MA8GA1UECgwIZVByb3NpbWExEzARBgNVBAMMCmFnZ3ItbWFnMzAwggEiMA0GCSqG
SIb3DQEBAQUAA4IBDwAwggEKAoIBAQDWFlB0eI9GZxmNlWQxzmL8L/a3r80kkS57
Fh02txVNcz+kMig1POPJPdKsuXGG2O0JlzFVqO7rh2DlT+RR/KSV13R1rPFLvr8v
zMysZ/BD2iRkl1nd6Y/03cGEWfzuaZbydxlGaMmAECMFPOo7Cj2QIuf6dPfF9nYF
0HZd6zVchxg6ztuGbduDPmL9uX8MJCO2rtp/A5BbrNOIpfIGeU4yeh3lKOWmQBJY
U8miFPwbY3/R7/TQBmwZOuqAAyAWvxwAYXjOjD0XgP0aCLQZyeFcKjheU2IerbrI
ZoNgFwOxn+PwslMmq4eibkJS35lOSoWK5c1BIMYU8pL/jjtA5n6fAgMBAAGjfDB6
MAkGA1UdEwQCMAAwDgYDVR0PAQH/BAQDAgOIMB0GA1UdJQQWMBQGCCsGAQUFBwMC
BggrBgEFBQcDATAdBgNVHQ4EFgQUryaJY66NR6R/94ow5JgZvVoztfcwHwYDVR0j
BBgwFoAUko+qxu0z0J/jtYa80GodzwA1v68wCgYIKoZIzj0EAwIDRwAwRAIgLzdF
cwh4cfEF66A7C8EpBo4oDrZ1aTjRgtF8i+uQACcCIH/8Jyw1TBoYR4PmddXXMON/
Hi2bJAfi3xwBpAnJZoj6
-----END CERTIFICATE-----
