Certificate:
    Data:
        Version: 3 (0x2)
        Serial Number: 4113 (0x1011)
        Signature Algorithm: ecdsa-with-SHA256
        Issuer: C=ES, ST=MA, L=Madrid, O=eProsima, CN=Identity CA/emailAddress=identity-ca@eprosima.com
        Validity
            Not Before: Mar 25 20:59:03 2026 GMT
            Not After : Mar 24 20:59:03 2031 GMT
        Subject: CN=aggregation
        Subject Public Key Info:
            Public Key Algorithm: rsaEncryption
                Public-Key: (2048 bit)
                Modulus:
                    00:b3:1d:b5:e5:07:c7:0e:b5:18:7b:e4:7c:cb:95:
                    cd:d4:9e:7e:68:02:1b:d1:6a:bc:57:c4:3a:8d:3d:
                    b6:82:01:5c:82:eb:6d:42:34:e6:7a:4d:17:ea:c0:
                    7a:30:5d:c7:8f:3b:9e:00:d2:04:e2:67:14:19:ae:
                    15:28:d0:4d:fb:c4:45:c2:13:12:cc:41:b9:9a:a6:
                    9c:34:14:54:32:cc:aa:18:f1:e3:59:e5:7c:bb:f1:
                    df:f5:36:5d:31:cb:d2:fe:5e:d9:e5:41:14:69:df:
                    84:a2:9d:17:4c:7c:81:7b:30:d3:7f:b7:b5:dd:d2:
                    ef:72:a5:91:6a:3f:72:f0:ce:ab:95:04:fc:35:73:
                    f5:1a:28:66:32:16:84:7b:a5:45:ef:21:04:bf:0b:
                    9f:2a:15:cd:88:9d:82:10:81:84:38:62:f3:ae:a2:
                    2a:f8:7b:5c:31:3d:ce:a1:4e:09:4b:57:00:b9:c2:
                    09:5e:a5:e3:82:ae:73:a3:79:36:01:65:63:15:97:
                    c9:9b:88:24:26:7d:2f:57:a1:0e:91:15:15:28:da:
                    6b:39:8f:34:95:f0:80:4d:14:0e:25:29:ac:dd:9c:
                    2b:d4:1b:19:1a:2d:19:24:5a:8b:6c:a4:27:58:80:
                    bc:4e:14:56:86:9a:6e:0c:b7:6a:e1:97:a6:78:87:
                    25:89
                Exponent: 65537 (0x10001)
        X509v3 extensions:
            X509v3 Basic Constraints: 
                CA:FALSE
            X509v3 Key Usage: critical
                Digital Signature, Key Agreement
            X509v3 Extended Key Usage: 
                TLS Web Client Authentication, TLS Web Server Authentication
            X509v3 Subject Key Identifier: 
                16:7A:79:44:32:45:C4:B4:7B:4B:14:25:CE:18:9C:DC:57:80:3F:56
            X509v3 Authority Key Identifier: 
                92:8F:AA:C6:ED:33:D0:9F:E3:B5:86:BC:D0:6A:1D:CF:00:35:BF:AF
    Signature Algorithm: ecdsa-with-SHA256
    Signature Value:
        30:44:02:20:3e:0c:30:db:7d:ab:17:15:1f:cd:97:d5:e4:a7:
        37:e8:3b:32:af:11:f4:6b:f4:32:71:81:63:ba:0a:f3:43:f8:
        02:20:15:7d:53:6d:45:b2:4b:56:39:b6:bb:47:8f:3d:0f:b9:
        b0:a2:c7:a2:6e:e1:77:43:5e:4d:08:44:bf:27:f8:38
-----BEGIN CERTIFICATE-----
MIICyTCCAnCgAwIBAgICEBEwCgYIKoZIzj0EAwIwfTELMAkGA1UEBhMCRVMxCzAJ
BgNVBAgMAk1BMQ8wDQYDVQQHDAZNYWRyaWQxETAPBgNVBAoMCGVQcm9zaW1hMRQw
EgYDVQQDDAtJZGVudGl0eSBDQTEnMCUGCSqGSIb3DQEJARYYaWRlbnRpdHktY2FA
ZXByb3NpbWEuY29tMB4XDTI2MDMyNTIwNTkwM1oXDTMxMDMyNDIwNTkwM1owFjEU
MBIGA1UEAwwLYWdncmVnYXRpb24wggEiMA0GCSqGSIb3DQEBAQUAA4IBDwAwggEK
AoIBAQCzHbXlB8cOtRh75HzLlc3Unn5oAhvRarxXxDqNPbaCAVyC621CNOZ6TRfq
wHowXcePO54A0gTiZxQZrhUo0E37xEXCExLMQbmappw0FFQyzKoY8eNZ5Xy78d/1
Nl0xy9L+XtnlQRRp34SinRdMfIF7MNN/t7Xd0u9ypZFqP3LwzquVBPw1c/UaKGYy
FoR7pUXvIQS/C58qFc2InYIQgYQ4YvOuoir4e1wxPc6hTglLVwC5wglepeOCrnOj
eTYBZWMVl8mbiCQmfS9XoQ6RFRUo2ms5jzSV8IBNFA4lKazdnCvUGxkaLRkkWots
pCdYgLxOFFaGmm4Mt2rhl6Z4hyWJAgMBAAGjfDB6MAkGA1UdEwQCMAAwDgYDVR0P
AQH/BAQDAgOIMB0GA1UdJQQWMBQGCCsGAQUFBwMCBggrBgEFBQcDATAdBgNVHQ4E
FgQUFnp5RDJFxLR7SxQlzhic3FeAP1YwHwYDVR0jBBgwFoAUko+qxu0z0J/jtYa8
0GodzwA1v68wCgYIKoZIzj0EAwIDRwAwRAIgPgww232rFxUfzZfV5Kc36DsyrxH0
a/QycYFjugrzQ/gCIBV9U21FsktWOba7R489D7mwoseibuF3Q15NCES/J/g4
-----END CERTIFICATE-----
