Certificate:
    Data:
        Version: 3 (0x2)
        Serial Number: 4114 (0x1012)
        Signature Algorithm: ecdsa-with-SHA256
        Issuer: C=ES, ST=MA, L=Madrid, O=eProsima, CN=Identity CA/emailAddress=identity-ca@eprosima.com
        Validity
            Not Before: Mar 25 21:01:17 2026 GMT
            Not After : Mar 24 21:01:17 2031 GMT
        Subject: C=ES, ST=MA, L=Tres Cantos, O=eProsima, CN=aggregation
        Subject Public Key Info:
            Public Key Algorithm: rsaEncryption
                Public-Key: (2048 bit)
                Modulus:
                    00:9e:06:e0:26:7d:42:1d:02:fd:4e:bb:8a:97:75:
                    c1:12:43:f4:f1:ec:1f:35:b3:79:45:0c:c0:0e:f6:
                    19:45:97:ac:4b:5e:c7:ed:e2:26:34:53:99:89:8b:
                    95:0b:72:d0:98:e7:f6:01:17:ff:9a:0d:20:5b:af:
                    eb:d1:58:2c:2f:1a:a0:c0:fe:2e:50:64:ae:c8:68:
                    05:54:e0:88:49:76:77:33:69:90:b1:99:81:8e:de:
                    e8:e5:d7:a6:51:73:54:b9:c3:1a:49:e8:e7:87:88:
                    7c:d3:86:b7:3b:32:46:88:ae:c3:6f:05:1a:59:ed:
                    cd:70:ae:0d:04:51:59:eb:f9:49:d3:97:54:00:ad:
                    b4:0c:b9:b7:c8:5e:32:e8:1d:2f:6f:d0:11:c3:28:
                    59:d1:65:9e:27:44:f4:93:2a:64:c8:41:02:85:eb:
                    e7:3c:8d:94:de:17:a5:f2:c1:e6:87:d5:b1:93:31:
                    5d:ac:88:bc:91:43:c3:c1:81:65:d7:8b:53:59:32:
                    65:98:e6:c0:7f:01:88:02:28:c1:a7:fc:8a:25:29:
                    1f:5a:f5:7d:9f:4d:10:53:58:60:b2:f8:34:e1:42:
                    31:22:e8:29:28:fc:e7:cf:27:5b:0d:e3:37:38:eb:
                    ba:87:81:11:06:e4:0e:78:98:15:6d:d2:8b:26:e3:
                    9b:6b
                Exponent: 65537 (0x10001)
        X509v3 extensions:
            X509v3 Basic Constraints: 
                CA:FALSE
            X509v3 Key Usage: critical
                Digital Signature, Key Agreement
            X509v3 Extended Key Usage: 
                TLS Web Client Authentication, TLS Web Server Authentication
            X509v3 Subject Key Identifier: 
                DE:72:96:5C:1B:1B:89:94:39:3F:E5:F8:F8:6E:76:9C:60:C5:01:E4
            X509v3 Authority Key Identifier: 
                92:8F:AA:C6:ED:33:D0:9F:E3:B5:86:BC:D0:6A:1D:CF:00:35:BF:AF
    Signature Algorithm: ecdsa-with-SHA256
    Signature Value:
        30:45:02:21:00:d6:4c:96:b6:a2:39:f4:f0:25:24:9e:33:f2:
        a4:ba:a1:c2:a7:ad:89:a1:6f:9a:c2:ed:0a:2f:73:e0:5e:36:
        d3:02:20:5a:ed:05:e5:51:42:ce:1d:01:53:80:e4:bc:16:19:
        83:cb:06:80:c5:49:1a:0d:6c:8f:9e:cf:51:9b:9f:81:f4
-----BEGIN CERTIFICATE-----
MIIDDTCCArOgAwIBAgICEBIwCgYIKoZIzj0EAwIwfTELMAkGA1UEBhMCRVMxCzAJ
BgNVBAgMAk1BMQ8wDQYDVQQHDAZNYWRyaWQxETAPBgNVBAoMCGVQcm9zaW1hMRQw
EgYDVQQDDAtJZGVudGl0eSBDQTEnMCUGCSqGSIb3DQEJARYYaWRlbnRpdHktY2FA
ZXByb3NpbWEuY29tMB4XDTI2MDMyNTIxMDExN1oXDTMxMDMyNDIxMDExN1owWTEL
MAkGA1UEBhMCRVMxCzAJBgNVBAgMAk1BMRQwEgYDVQQHDAtUcmVzIENhbnRvczER
MA8GA1UECgwIZVByb3NpbWExFDASBgNVBAMMC2FnZ3JlZ2F0aW9uMIIBIjANBgkq
hkiG9w0BAQEFAAOCAQ8AMIIBCgKCAQEAngbgJn1CHQL9TruKl3XBEkP08ewfNbN5
RQzADvYZRZesS17H7eImNFOZiYuVC3LQmOf2ARf/mg0gW6/r0VgsLxqgwP4uUGSu
yGgFVOCISXZ3M2mQsZmBjt7o5demUXNUucMaSejnh4h804a3OzJGiK7DbwUaWe3N
cK4NBFFZ6/lJ05dUAK20DLm3yF4y6B0vb9ARwyhZ0WWeJ0T0kypkyEEChevnPI2U
3hel8sHmh9WxkzFdrIi8kUPDwYFl14tTWTJlmObAfwGIAijBp/yKJSkfWvV9n00Q
U1hgsvg04UIxIugpKPznzydbDeM3OOu6h4ERBuQOeJgVbdKLJuObawIDAQABo3ww
ejAJBgNVHRMEAjAAMA4GA1UdDwEB/wQEAwIDiDAdBgNVHSUEFjAUBggrBgEFBQcD
AgYIKwYBBQUHAwEwHQYDVR0OBBYEFN5yllwbG4mUOT/l+PhudpxgxQHkMB8GA1Ud
IwQYMBaAFJKPqsbtM9Cf47WGvNBqHc8ANb+vMAoGCCqGSM49BAMCA0gAMEUCIQDW
TJa2ojn08CUknjPypLqhwqetiaFvmsLtCi9z4F420wIgWu0F5VFCzh0BU4DkvBYZ
g8sGgMVJGg1sj57PUZufgfQ=
-----END CERTIFICATE-----
