Certificate:
    Data:
        Version: 3 (0x2)
        Serial Number: 4115 (0x1013)
        Signature Algorithm: ecdsa-with-SHA256
        Issuer: C=ES, ST=MA, L=Madrid, O=eProsima, CN=Identity CA/emailAddress=identity-ca@eprosima.com
        Validity
            Not Before: Mar 26 18:31:04 2026 GMT
            Not After : Mar 23 18:31:04 2036 GMT
        Subject: C=ES, ST=Madrid, O=TFM, CN=intermediate_store
        Subject Public Key Info:
            Public Key Algorithm: rsaEncryption
                Public-Key: (2048 bit)
                Modulus:
                    00:8a:51:46:b6:99:b6:4c:90:5b:27:1a:e5:7d:b5:
                    c4:d3:7a:c3:68:04:f8:eb:48:ee:67:6a:c7:72:5d:
                    20:1d:8e:ff:39:84:64:15:43:89:a6:14:64:81:ff:
                    1b:5a:e3:7f:8b:10:b1:37:82:a6:7c:59:1c:96:a1:
                    60:d2:58:3d:d9:7d:cd:40:a9:08:09:ab:6c:ae:9b:
                    77:f9:4a:30:93:c6:9f:62:2d:f7:fe:bd:36:56:22:
                    11:82:41:da:28:28:71:7f:4e:a2:ef:4c:ff:f7:da:
                    b7:5a:16:ad:54:e2:c7:99:95:13:ee:9e:a2:a3:c4:
                    cc:03:87:e9:dd:e5:85:fc:9a:8b:22:d0:6b:a5:7d:
                    d7:50:27:41:f1:0c:7c:2e:26:db:82:1d:26:0d:3a:
                    5b:9c:20:5e:e2:c9:de:66:81:bf:3d:74:43:10:cf:
                    2c:77:e2:d4:bc:5c:f2:04:40:3c:d1:7f:44:fc:39:
                    f9:da:f2:75:e6:14:82:82:08:79:aa:15:50:ee:de:
                    3f:54:79:2d:e8:57:c2:ae:8e:0b:44:b9:5f:8d:04:
                    48:22:52:d6:f7:cb:94:2c:f2:02:81:81:66:d1:03:
                    07:ed:7d:9b:a3:c2:c8:72:97:9a:66:62:57:b2:7d:
                    e3:f8:26:60:25:b3:41:ec:71:8e:0a:9f:d5:85:ca:
                    2e:5d
                Exponent: 65537 (0x10001)
        X509v3 extensions:
            X509v3 Basic Constraints: 
                CA:FALSE
            X509v3 Key Usage: critical
                Digital Signature, Key Agreement
            X509v3 Extended Key Usage: 
                TLS Web Client Authentication, TLS Web Server Authentication
            X509v3 Subject Key Identifier: 
                49:A4:BD:46:FC:19:43:F5:DA:7D:15:75:9F:DA:2B:EE:73:5C:2C:B5
            X509v3 Authority Key Identifier: 
                92:8F:AA:C6:ED:33:D0:9F:E3:B5:86:BC:D0:6A:1D:CF:00:35:BF:AF
    Signature Algorithm: ecdsa-with-SHA256
    Signature Value:
        30:46:02:21:00:d8:51:a6:fa:d1:5a:aa:62:db:08:51:d8:6a:
        b6:8f:35:21:f2:db:b8:84:6e:64:9f:51:10:01:b6:2a:5f:9f:
        55:02:21:00:ea:e8:0f:04:3f:ff:bc:79:ff:42:7c:4b:69:76:
        c8:61:f3:43:42:0e:09:a3:62:f2:de:9a:4b:6b:fd:77:23:39
-----BEGIN CERTIFICATE-----
MIIC/jCCAqOgAwIBAgICEBMwCgYIKoZIzj0EAwIwfTELMAkGA1UEBhMCRVMxCzAJ
BgNVBAgMAk1BMQ8wDQYDVQQHDAZNYWRyaWQxETAPBgNVBAoMCGVQcm9zaW1hMRQw
EgYDVQQDDAtJZGVudGl0eSBDQTEnMCUGCSqGSIb3DQEJARYYaWRlbnRpdHktY2FA
ZXByb3NpbWEuY29tMB4XDTI2MDMyNjE4MzEwNFoXDTM2MDMyMzE4MzEwNFowSTEL
MAkGA1UEBhMCRVMxDzANBgNVBAgMBk1hZHJpZDEMMAoGA1UECgwDVEZNMRswGQYD
VQQDDBJpbnRlcm1lZGlhdGVfc3RvcmUwggEiMA0GCSqGSIb3DQEBAQUAA4IBDwAw
ggEKAoIBAQCKUUa2mbZMkFsnGuV9tcTTesNoBPjrSO5nasdyXSAdjv85hGQVQ4mm
FGSB/xta43+LELE3gqZ8WRyWoWDSWD3Zfc1AqQgJq2yum3f5SjCTxp9iLff+vTZW
IhGCQdooKHF/TqLvTP/32rdaFq1U4seZlRPunqKjxMwDh+nd5YX8mosi0GulfddQ
J0HxDHwuJtuCHSYNOlucIF7iyd5mgb89dEMQzyx34tS8XPIEQDzRf0T8Ofna8nXm
FIKCCHmqFVDu3j9UeS3oV8KujgtEuV+NBEgiUtb3y5Qs8gKBgWbRAwftfZujwshy
l5pmYleyfeP4JmAls0HscY4Kn9WFyi5dAgMBAAGjfDB6MAkGA1UdEwQCMAAwDgYD
VR0PAQH/BAQDAgOIMB0GA1UdJQQWMBQGCCsGAQUFBwMCBggrBgEFBQcDATAdBgNV
HQ4EFgQUSaS9RvwZQ/XafRV1n9or7nNcLLUwHwYDVR0jBBgwFoAUko+qxu0z0J/j
tYa80GodzwA1v68wCgYIKoZIzj0EAwIDSQAwRgIhANhRpvrRWqpi2whR2Gq2jzUh
8tu4hG5kn1EQAbYqX59VAiEA6ugPBD//vHn/QnxLaXbIYfNDQg4Jo2Ly3ppLa/13
Izk=
-----END CERTIFICATE-----
