Certificate:
    Data:
        Version: 3 (0x2)
        Serial Number: 4097 (0x1001)
        Signature Algorithm: ecdsa-with-SHA256
        Issuer: C=ES, ST=MA, L=Madrid, O=eProsima, CN=Identity CA/emailAddress=identity-ca@eprosima.com
        Validity
            Not Before: Feb  7 11:46:27 2026 GMT
            Not After : Feb  6 11:46:27 2031 GMT
        Subject: C=ES, ST=MA, L=Tres Cantos, O=eProsima, CN=fastdds-client
        Subject Public Key Info:
            Public Key Algorithm: id-ecPublicKey
                Public-Key: (256 bit)
                pub:
                    04:ff:3b:c1:15:0a:a0:4e:6f:6f:ae:bd:e2:30:4b:
                    f3:53:d6:4e:32:7c:89:60:4d:5a:d1:f5:25:3e:87:
                    6a:ce:b5:f9:36:af:26:f4:0a:ee:9c:09:0a:76:a6:
                    34:26:ad:2e:5f:38:ef:86:ff:64:f7:a5:2f:36:5e:
                    ab:9c:57:0d:ff
                ASN1 OID: prime256v1
                NIST CURVE: P-256
        X509v3 extensions:
            X509v3 Basic Constraints: 
                CA:FALSE
            X509v3 Key Usage: critical
                Digital Signature, Key Agreement
            X509v3 Extended Key Usage: 
                TLS Web Client Authentication, TLS Web Server Authentication
            X509v3 Subject Key Identifier: 
                5B:8B:D2:20:30:9D:2D:4E:BA:12:51:0D:CC:73:0C:C6:9F:2D:A8:6A
            X509v3 Authority Key Identifier: 
                92:8F:AA:C6:ED:33:D0:9F:E3:B5:86:BC:D0:6A:1D:CF:00:35:BF:AF
    Signature Algorithm: ecdsa-with-SHA256
    Signature Value:
        30:45:02:20:2d:de:0c:7c:79:10:8a:75:1e:86:35:32:6a:1b:
        f7:3c:72:66:e0:7e:48:bb:c5:a9:bc:f1:7b:02:0b:3e:79:a7:
        02:21:00:93:a5:4b:6f:65:9a:d4:2e:f0:35:1b:15:26:26:49:
        bd:61:22:2f:a5:c0:1e:41:3d:e0:30:6d:90:f8:ef:e8:a4
-----BEGIN CERTIFICATE-----
MIICRTCCAeugAwIBAgICEAEwCgYIKoZIzj0EAwIwfTELMAkGA1UEBhMCRVMxCzAJ
BgNVBAgMAk1BMQ8wDQYDVQQHDAZNYWRyaWQxETAPBgNVBAoMCGVQcm9zaW1hMRQw
EgYDVQQDDAtJZGVudGl0eSBDQTEnMCUGCSqGSIb3DQEJARYYaWRlbnRpdHktY2FA
ZXByb3NpbWEuY29tMB4XDTI2MDIwNzExNDYyN1oXDTMxMDIwNjExNDYyN1owXDEL
MAkGA1UEBhMCRVMxCzAJBgNVBAgMAk1BMRQwEgYDVQQHDAtUcmVzIENhbnRvczER
MA8GA1UECgwIZVByb3NpbWExFzAVBgNVBAMMDmZhc3RkZHMtY2xpZW50MFkwEwYH
KoZIzj0CAQYIKoZIzj0DAQcDQgAE/zvBFQqgTm9vrr3iMEvzU9ZOMnyJYE1a0fUl
PodqzrX5Nq8m9ArunAkKdqY0Jq0uXzjvhv9k96UvNl6rnFcN/6N8MHowCQYDVR0T
BAIwADAOBgNVHQ8BAf8EBAMCA4gwHQYDVR0lBBYwFAYIKwYBBQUHAwIGCCsGAQUF
BwMBMB0GA1UdDgQWBBRbi9IgMJ0tTroSUQ3McwzGny2oajAfBgNVHSMEGDAWgBSS
j6rG7TPQn+O1hrzQah3PADW/rzAKBggqhkjOPQQDAgNIADBFAiAt3gx8eRCKdR6G
NTJqG/c8cmbgfki7xam88XsCCz55pwIhAJOlS29lmtQu8DUbFSYmSb1hIi+lwB5B
PeAwbZD47+ik
-----END CERTIFICATE-----
