Certificate:
    Data:
        Version: 3 (0x2)
        Serial Number: 4116 (0x1014)
        Signature Algorithm: ecdsa-with-SHA256
        Issuer: C=ES, ST=MA, L=Madrid, O=eProsima, CN=Identity CA/emailAddress=identity-ca@eprosima.com
        Validity
            Not Before: Mar 26 18:32:24 2026 GMT
            Not After : Mar 23 18:32:24 2036 GMT
        Subject: C=ES, ST=MA, L=Tres Cantos, O=eProsima, CN=intermediate_store
        Subject Public Key Info:
            Public Key Algorithm: rsaEncryption
                Public-Key: (2048 bit)
                Modulus:
                    00:ca:4f:6e:88:92:eb:29:47:6c:a5:35:43:a4:22:
                    19:2f:92:2e:c2:71:cf:87:18:50:77:6c:fe:6f:c7:
                    4e:99:73:bf:30:63:13:ae:fd:8e:b8:16:75:37:dc:
                    82:d4:60:9a:58:43:81:fc:b1:da:1b:94:2c:1e:21:
                    c6:c9:0e:7d:87:a9:51:3c:89:f5:11:03:c0:52:9e:
                    45:b9:e9:b2:d9:69:48:81:da:69:a5:10:ad:2e:61:
                    0e:84:5a:29:9b:94:85:85:d0:16:bb:b9:ee:2b:84:
                    9f:e8:88:80:23:b2:dd:99:89:5d:72:41:e8:a9:2b:
                    95:44:a8:c1:7d:8e:91:5c:21:a9:76:4d:be:cb:9a:
                    74:b8:9a:ed:89:25:af:07:60:d2:6a:6c:f1:57:ce:
                    11:aa:7c:df:20:0a:47:e8:ac:3b:21:26:46:13:ef:
                    f5:c5:5f:11:f8:4a:8e:27:16:4b:28:59:86:36:d3:
                    fe:51:16:27:dc:84:46:94:59:7c:e8:df:18:ca:7f:
                    a2:24:eb:3b:45:d5:64:d3:7c:63:a7:c7:49:2e:3f:
                    d8:a9:6f:56:25:15:da:cc:10:9a:7a:52:ed:2b:23:
                    35:92:1e:eb:81:51:2e:02:89:16:2f:36:af:cf:60:
                    37:29:66:fa:9f:3d:15:87:4c:a6:81:1a:f0:5a:50:
                    36:1d
                Exponent: 65537 (0x10001)
        X509v3 extensions:
            X509v3 Basic Constraints: 
                CA:FALSE
            X509v3 Key Usage: critical
                Digital Signature, Key Agreement
            X509v3 Extended Key Usage: 
                TLS Web Client Authentication, TLS Web Server Authentication
            X509v3 Subject Key Identifier: 
                81:FF:B2:C0:70:BB:07:AB:05:EA:F2:91:55:49:BD:2A:F2:6B:B9:F0
            X509v3 Authority Key Identifier: 
                92:8F:AA:C6:ED:33:D0:9F:E3:B5:86:BC:D0:6A:1D:CF:00:35:BF:AF
    Signature Algorithm: ecdsa-with-SHA256
    Signature Value:
        30:45:02:20:54:7f:fb:08:f0:85:c3:0e:1f:40:42:d3:6f:51:
        15:75:4e:6e:85:9f:87:3d:be:a6:8c:2c:8a:75:ff:b7:fd:0f:
        02:21:00:92:a1:1b:1a:7a:fd:e8:bb:a1:d2:a4:70:09:45:e0:
        7b:91:70:7a:a3:a7:c0:6a:48:2b:3d:68:19:26:b6:d2:9e
-----BEGIN CERTIFICATE-----
MIIDFDCCArqgAwIBAgICEBQwCgYIKoZIzj0EAwIwfTELMAkGA1UEBhMCRVMxCzAJ
BgNVBAgMAk1BMQ8wDQYDVQQHDAZNYWRyaWQxETAPBgNVBAoMCGVQcm9zaW1hMRQw
EgYDVQQDDAtJZGVudGl0eSBDQTEnMCUGCSqGSIb3DQEJARYYaWRlbnRpdHktY2FA
ZXByb3NpbWEuY29tMB4XDTI2MDMyNjE4MzIyNFoXDTM2MDMyMzE4MzIyNFowYDEL
MAkGA1UEBhMCRVMxCzAJBgNVBAgMAk1BMRQwEgYDVQQHDAtUcmVzIENhbnRvczER
MA8GA1UECgwIZVByb3NpbWExGzAZBgNVBAMMEmludGVybWVkaWF0ZV9zdG9yZTCC
ASIwDQYJKoZIhvcNAQEBBQADggEPADCCAQoCggEBAMpPboiS6ylHbKU1Q6QiGS+S
LsJxz4cYUHds/m/HTplzvzBjE679jrgWdTfcgtRgmlhDgfyx2huULB4hxskOfYep
UTyJ9REDwFKeRbnpstlpSIHaaaUQrS5hDoRaKZuUhYXQFru57iuEn+iIgCOy3ZmJ
XXJB6KkrlUSowX2OkVwhqXZNvsuadLia7Yklrwdg0mps8VfOEap83yAKR+isOyEm
RhPv9cVfEfhKjicWSyhZhjbT/lEWJ9yERpRZfOjfGMp/oiTrO0XVZNN8Y6fHSS4/
2KlvViUV2swQmnpS7SsjNZIe64FRLgKJFi82r89gNylm+p89FYdMpoEa8FpQNh0C
AwEAAaN8MHowCQYDVR0TBAIwADAOBgNVHQ8BAf8EBAMCA4gwHQYDVR0lBBYwFAYI
KwYBBQUHAwIGCCsGAQUFBwMBMB0GA1UdDgQWBBSB/7LAcLsHqwXq8pFVSb0q8mu5
8DAfBgNVHSMEGDAWgBSSj6rG7TPQn+O1hrzQah3PADW/rzAKBggqhkjOPQQDAgNI
ADBFAiBUf/sI8IXDDh9AQtNvURV1Tm6Fn4c9vqaMLIp1/7f9DwIhAJKhGxp6/ei7
odKkcAlF4HuRcHqjp8BqSCs9aBkmttKe
-----END CERTIFICATE-----
