Certificate:
    Data:
        Version: 3 (0x2)
        Serial Number: 4101 (0x1005)
        Signature Algorithm: ecdsa-with-SHA256
        Issuer: C=ES, ST=MA, L=Madrid, O=eProsima, CN=Identity CA/emailAddress=identity-ca@eprosima.com
        Validity
            Not Before: Mar 15 15:44:21 2026 GMT
            Not After : Mar 14 15:44:21 2031 GMT
        Subject: C=ES, ST=MA, L=Tres Cantos, O=eProsima, CN=router-pub
        Subject Public Key Info:
            Public Key Algorithm: id-ecPublicKey
                Public-Key: (256 bit)
                pub:
                    04:74:a4:1f:a0:13:46:09:86:04:a2:b4:b9:2d:24:
                    35:f6:28:d7:b6:3d:78:c2:54:b4:db:ac:d9:06:a6:
                    82:9b:e7:99:ee:cd:02:f4:d8:99:ce:a2:50:81:2c:
                    21:eb:37:23:46:9c:cc:d1:9e:b7:5f:8b:11:54:7e:
                    aa:21:8a:1a:5e
                ASN1 OID: prime256v1
                NIST CURVE: P-256
        X509v3 extensions:
            X509v3 Basic Constraints: 
                CA:FALSE
            X509v3 Key Usage: critical
                Digital Signature, Key Agreement
            X509v3 Extended Key Usage: 
                TLS Web Client Authentication, TLS Web Server Authentication
            X509v3 Subject Key Identifier: 
                AC:95:5E:1A:CE:59:E7:8F:0F:14:C1:E4:54:9E:4B:D2:11:0F:8C:5E
            X509v3 Authority Key Identifier: 
                92:8F:AA:C6:ED:33:D0:9F:E3:B5:86:BC:D0:6A:1D:CF:00:35:BF:AF
    Signature Algorithm: ecdsa-with-SHA256
    Signature Value:
        30:45:02:20:23:60:02:ca:c1:9b:bf:68:97:0f:62:0d:07:15:
        df:23:6d:3b:21:e7:b7:8b:8f:b5:31:d5:ac:2c:49:2b:9c:6b:
        02:21:00:bd:ee:1f:3f:12:0a:b6:9c:0d:06:fd:02:0b:0c:e1:
        d7:8a:4f:00:28:31:ee:37:22:aa:3a:7e:64:39:67:69:35
-----BEGIN CERTIFICATE-----
MIICQTCCAeegAwIBAgICEAUwCgYIKoZIzj0EAwIwfTELMAkGA1UEBhMCRVMxCzAJ
BgNVBAgMAk1BMQ8wDQYDVQQHDAZNYWRyaWQxETAPBgNVBAoMCGVQcm9zaW1hMRQw
EgYDVQQDDAtJZGVudGl0eSBDQTEnMCUGCSqGSIb3DQEJARYYaWRlbnRpdHktY2FA
ZXByb3NpbWEuY29tMB4XDTI2MDMxNTE1NDQyMVoXDTMxMDMxNDE1NDQyMVowWDEL
MAkGA1UEBhMCRVMxCzAJBgNVBAgMAk1BMRQwEgYDVQQHDAtUcmVzIENhbnRvczER
MA8GA1UECgwIZVByb3NpbWExEzARBgNVBAMMCnJvdXRlci1wdWIwWTATBgcqhkjO
PQIBBggqhkjOPQMBBwNCAAR0pB+gE0YJhgSitLktJDX2KNe2PXjCVLTbrNkGpoKb
55nuzQL02JnOolCBLCHrNyNGnMzRnrdfixFUfqohihpeo3wwejAJBgNVHRMEAjAA
MA4GA1UdDwEB/wQEAwIDiDAdBgNVHSUEFjAUBggrBgEFBQcDAgYIKwYBBQUHAwEw
HQYDVR0OBBYEFKyVXhrOWeePDxTB5FSeS9IRD4xeMB8GA1UdIwQYMBaAFJKPqsbt
M9Cf47WGvNBqHc8ANb+vMAoGCCqGSM49BAMCA0gAMEUCICNgAsrBm79olw9iDQcV
3yNtOyHnt4uPtTHVrCxJK5xrAiEAve4fPxIKtpwNBv0CCwzh14pPACgx7jciqjp+
ZDlnaTU=
-----END CERTIFICATE-----
