Certificate:
    Data:
        Version: 3 (0x2)
        Serial Number: 4102 (0x1006)
        Signature Algorithm: ecdsa-with-SHA256
        Issuer: C=ES, ST=MA, L=Madrid, O=eProsima, CN=Identity CA/emailAddress=identity-ca@eprosima.com
        Validity
            Not Before: Mar 15 15:44:26 2026 GMT
            Not After : Mar 14 15:44:26 2031 GMT
        Subject: C=ES, ST=MA, L=Tres Cantos, O=eProsima, CN=router-mid
        Subject Public Key Info:
            Public Key Algorithm: id-ecPublicKey
                Public-Key: (256 bit)
                pub:
                    04:9b:01:16:ea:ae:65:d5:63:4f:63:8a:f4:e5:ee:
                    c6:d0:27:d0:be:0e:b4:13:6d:17:89:e0:b4:7a:48:
                    53:7f:73:6e:47:6e:bf:11:1e:2d:dd:e9:13:ff:dc:
                    54:d1:34:4d:3d:97:74:93:70:d6:aa:ec:36:6c:60:
                    f8:66:75:a2:49
                ASN1 OID: prime256v1
                NIST CURVE: P-256
        X509v3 extensions:
            X509v3 Basic Constraints: 
                CA:FALSE
            X509v3 Key Usage: critical
                Digital Signature, Key Agreement
            X509v3 Extended Key Usage: 
                TLS Web Client Authentication, TLS Web Server Authentication
            X509v3 Subject Key Identifier: 
                F8:02:3E:2F:53:49:D0:92:80:30:36:35:FF:99:5B:CB:79:7D:75:EA
            X509v3 Authority Key Identifier: 
                92:8F:AA:C6:ED:33:D0:9F:E3:B5:86:BC:D0:6A:1D:CF:00:35:BF:AF
    Signature Algorithm: ecdsa-with-SHA256
    Signature Value:
        30:45:02:20:62:c9:dc:af:54:98:1e:7a:9a:83:3b:fd:93:99:
        05:79:8e:26:af:96:83:da:9b:0a:aa:1c:3f:09:a1:7d:80:48:
        02:21:00:f1:ea:d8:47:20:fc:98:85:24:c6:53:06:0f:31:33:
        22:41:e5:c9:99:21:9d:ee:b3:1f:ac:a7:60:61:81:a4:fa
-----BEGIN CERTIFICATE-----
MIICQTCCAeegAwIBAgICEAYwCgYIKoZIzj0EAwIwfTELMAkGA1UEBhMCRVMxCzAJ
BgNVBAgMAk1BMQ8wDQYDVQQHDAZNYWRyaWQxETAPBgNVBAoMCGVQcm9zaW1hMRQw
EgYDVQQDDAtJZGVudGl0eSBDQTEnMCUGCSqGSIb3DQEJARYYaWRlbnRpdHktY2FA
ZXByb3NpbWEuY29tMB4XDTI2MDMxNTE1NDQyNloXDTMxMDMxNDE1NDQyNlowWDEL
MAkGA1UEBhMCRVMxCzAJBgNVBAgMAk1BMRQwEgYDVQQHDAtUcmVzIENhbnRvczER
MA8GA1UECgwIZVByb3NpbWExEzARBgNVBAMMCnJvdXRlci1taWQwWTATBgcqhkjO
PQIBBggqhkjOPQMBBwNCAASbARbqrmXVY09jivTl7sbQJ9C+DrQTbReJ4LR6SFN/
c25Hbr8RHi3d6RP/3FTRNE09l3STcNaq7DZsYPhmdaJJo3wwejAJBgNVHRMEAjAA
MA4GA1UdDwEB/wQEAwIDiDAdBgNVHSUEFjAUBggrBgEFBQcDAgYIKwYBBQUHAwEw
HQYDVR0OBBYEFPgCPi9TSdCSgDA2Nf+ZW8t5fXXqMB8GA1UdIwQYMBaAFJKPqsbt
M9Cf47WGvNBqHc8ANb+vMAoGCCqGSM49BAMCA0gAMEUCIGLJ3K9UmB56moM7/ZOZ
BXmOJq+Wg9qbCqocPwmhfYBIAiEA8erYRyD8mIUkxlMGDzEzIkHlyZkhne6zH6yn
YGGBpPo=
-----END CERTIFICATE-----
