Certificate:
    Data:
        Version: 3 (0x2)
        Serial Number: 4107 (0x100b)
        Signature Algorithm: ecdsa-with-SHA256
        Issuer: C=ES, ST=MA, L=Madrid, O=eProsima, CN=Identity CA/emailAddress=identity-ca@eprosima.com
        Validity
            Not Before: Mar 24 12:50:47 2026 GMT
            Not After : Mar 23 12:50:47 2031 GMT
        Subject: C=ES, ST=MA, L=Tres Cantos, O=eProsima, CN=sensor-mag12
        Subject Public Key Info:
            Public Key Algorithm: rsaEncryption
                Public-Key: (2048 bit)
                Modulus:
                    00:e2:8e:1e:f0:50:6b:9b:96:db:8a:0a:cb:13:50:
                    f0:a2:fb:b7:64:21:99:e5:16:56:9b:54:66:e3:1e:
                    74:05:33:86:b8:b2:b6:cc:24:1f:33:44:be:e2:4f:
                    8b:15:6c:3d:73:aa:0c:f4:2b:78:36:b0:2e:79:59:
                    02:05:6d:77:c9:b0:aa:46:bb:63:7f:8b:04:59:b4:
                    4e:f3:95:5f:ba:4a:3c:0c:a6:c6:a6:81:7b:01:9b:
                    58:fe:0d:46:00:a8:b2:26:b4:9d:95:aa:83:63:07:
                    09:65:d4:86:25:a2:e3:a0:22:15:78:2f:08:4f:68:
                    70:c0:7f:9a:cc:85:5b:36:d0:58:ad:9b:b7:0c:d6:
                    64:ac:18:ce:1d:a1:9c:f8:76:84:b1:cd:51:43:d1:
                    bb:98:46:6e:60:e6:d5:c6:87:27:9b:fd:a5:66:25:
                    e6:c1:24:2d:60:10:50:fc:88:e6:f8:35:fc:35:26:
                    9a:31:30:bf:0d:c2:1e:2a:f6:b6:40:72:d3:8b:50:
                    f3:52:14:47:23:f6:ba:17:c6:3d:92:31:8e:a5:98:
                    94:d7:b8:b4:25:4c:be:9c:06:01:c9:85:7b:a1:26:
                    1f:0a:b8:12:67:76:d9:ce:e8:31:61:64:42:df:44:
                    7a:34:34:fa:59:d8:9e:a2:94:04:b2:c2:3a:3c:5c:
                    c7:95
                Exponent: 65537 (0x10001)
        X509v3 extensions:
            X509v3 Basic Constraints: 
                CA:FALSE
            X509v3 Key Usage: critical
                Digital Signature, Key Agreement
            X509v3 Extended Key Usage: 
                TLS Web Client Authentication, TLS Web Server Authentication
            X509v3 Subject Key Identifier: 
                49:4A:43:79:4B:6A:52:03:AE:E2:CD:3C:19:5F:B0:14:89:B1:58:59
            X509v3 Authority Key Identifier: 
                92:8F:AA:C6:ED:33:D0:9F:E3:B5:86:BC:D0:6A:1D:CF:00:35:BF:AF
    Signature Algorithm: ecdsa-with-SHA256
    Signature Value:
        30:46:02:21:00:db:12:e7:cc:8b:e3:1c:0a:5c:63:9e:a4:b9:
        66:09:00:4b:f9:53:58:6c:8a:9f:c9:3f:b2:0c:7e:26:b3:8e:
        64:02:21:00:f2:23:ae:d0:11:5a:26:a3:36:42:a8:cc:fc:9f:
        cb:70:66:b5:ee:98:1a:4f:97:69:2b:ed:53:94:d8:80:70:27
-----BEGIN CERTIFICATE-----
MIIDDzCCArSgAwIBAgICEAswCgYIKoZIzj0EAwIwfTELMAkGA1UEBhMCRVMxCzAJ
BgNVBAgMAk1BMQ8wDQYDVQQHDAZNYWRyaWQxETAPBgNVBAoMCGVQcm9zaW1hMRQw
EgYDVQQDDAtJZGVudGl0eSBDQTEnMCUGCSqGSIb3DQEJARYYaWRlbnRpdHktY2FA
ZXByb3NpbWEuY29tMB4XDTI2MDMyNDEyNTA0N1oXDTMxMDMyMzEyNTA0N1owWjEL
MAkGA1UEBhMCRVMxCzAJBgNVBAgMAk1BMRQwEgYDVQQHDAtUcmVzIENhbnRvczER
MA8GA1UECgwIZVByb3NpbWExFTATBgNVBAMMDHNlbnNvci1tYWcxMjCCASIwDQYJ
KoZIhvcNAQEBBQADggEPADCCAQoCggEBAOKOHvBQa5uW24oKyxNQ8KL7t2QhmeUW
VptUZuMedAUzhriytswkHzNEvuJPixVsPXOqDPQreDawLnlZAgVtd8mwqka7Y3+L
BFm0TvOVX7pKPAymxqaBewGbWP4NRgCosia0nZWqg2MHCWXUhiWi46AiFXgvCE9o
cMB/msyFWzbQWK2btwzWZKwYzh2hnPh2hLHNUUPRu5hGbmDm1caHJ5v9pWYl5sEk
LWAQUPyI5vg1/DUmmjEwvw3CHir2tkBy04tQ81IURyP2uhfGPZIxjqWYlNe4tCVM
vpwGAcmFe6EmHwq4Emd22c7oMWFkQt9EejQ0+lnYnqKUBLLCOjxcx5UCAwEAAaN8
MHowCQYDVR0TBAIwADAOBgNVHQ8BAf8EBAMCA4gwHQYDVR0lBBYwFAYIKwYBBQUH
AwIGCCsGAQUFBwMBMB0GA1UdDgQWBBRJSkN5S2pSA67izTwZX7AUibFYWTAfBgNV
HSMEGDAWgBSSj6rG7TPQn+O1hrzQah3PADW/rzAKBggqhkjOPQQDAgNJADBGAiEA
2xLnzIvjHApcY56kuWYJAEv5U1hsip/JP7IMfiazjmQCIQDyI67QEVomozZCqMz8
n8twZrXumBpPl2kr7VOU2IBwJw==
-----END CERTIFICATE-----
