Certificate:
    Data:
        Version: 3 (0x2)
        Serial Number: 4104 (0x1008)
        Signature Algorithm: ecdsa-with-SHA256
        Issuer: C=ES, ST=MA, L=Madrid, O=eProsima, CN=Identity CA/emailAddress=identity-ca@eprosima.com
        Validity
            Not Before: Mar 22 21:55:47 2026 GMT
            Not After : Mar 21 21:55:47 2031 GMT
        Subject: C=ES, ST=MA, L=Tres Cantos, O=eProsima, CN=fastdds-server-pub
        Subject Public Key Info:
            Public Key Algorithm: id-ecPublicKey
                Public-Key: (256 bit)
                pub:
                    04:a1:db:d6:a3:bf:f3:0e:d0:04:a6:33:c0:03:5f:
                    e8:a7:9c:2e:1a:48:41:aa:f9:9b:66:3b:70:32:95:
                    4d:6c:57:f2:43:72:6a:c6:b3:c1:ed:02:84:e6:b5:
                    d2:36:8b:49:97:61:6a:fd:2c:3b:ee:25:61:bd:39:
                    15:c0:12:5b:d0
                ASN1 OID: prime256v1
                NIST CURVE: P-256
        X509v3 extensions:
            X509v3 Basic Constraints: 
                CA:FALSE
            X509v3 Key Usage: critical
                Digital Signature, Key Agreement
            X509v3 Extended Key Usage: 
                TLS Web Client Authentication, TLS Web Server Authentication
            X509v3 Subject Key Identifier: 
                51:0F:77:A6:08:50:20:2E:97:6D:07:93:DE:40:4D:26:F9:31:F4:7F
            X509v3 Authority Key Identifier: 
                92:8F:AA:C6:ED:33:D0:9F:E3:B5:86:BC:D0:6A:1D:CF:00:35:BF:AF
    Signature Algorithm: ecdsa-with-SHA256
    Signature Value:
        30:46:02:21:00:8a:c9:bd:6d:05:68:08:9b:47:a7:07:78:ad:
        78:b1:4c:0a:ab:cf:3f:2f:78:a0:57:d4:d1:b3:11:49:87:45:
        78:02:21:00:b5:d5:cc:81:bf:f3:e0:7d:26:c6:a9:f0:33:3a:
        cd:15:e9:87:7b:65:7c:45:71:85:fa:1d:8e:13:46:17:8a:bd
-----BEGIN CERTIFICATE-----
MIICSjCCAe+gAwIBAgICEAgwCgYIKoZIzj0EAwIwfTELMAkGA1UEBhMCRVMxCzAJ
BgNVBAgMAk1BMQ8wDQYDVQQHDAZNYWRyaWQxETAPBgNVBAoMCGVQcm9zaW1hMRQw
EgYDVQQDDAtJZGVudGl0eSBDQTEnMCUGCSqGSIb3DQEJARYYaWRlbnRpdHktY2FA
ZXByb3NpbWEuY29tMB4XDTI2MDMyMjIxNTU0N1oXDTMxMDMyMTIxNTU0N1owYDEL
MAkGA1UEBhMCRVMxCzAJBgNVBAgMAk1BMRQwEgYDVQQHDAtUcmVzIENhbnRvczER
MA8GA1UECgwIZVByb3NpbWExGzAZBgNVBAMMEmZhc3RkZHMtc2VydmVyLXB1YjBZ
MBMGByqGSM49AgEGCCqGSM49AwEHA0IABKHb1qO/8w7QBKYzwANf6KecLhpIQar5
m2Y7cDKVTWxX8kNyasazwe0ChOa10jaLSZdhav0sO+4lYb05FcASW9CjfDB6MAkG
A1UdEwQCMAAwDgYDVR0PAQH/BAQDAgOIMB0GA1UdJQQWMBQGCCsGAQUFBwMCBggr
BgEFBQcDATAdBgNVHQ4EFgQUUQ93pghQIC6XbQeT3kBNJvkx9H8wHwYDVR0jBBgw
FoAUko+qxu0z0J/jtYa80GodzwA1v68wCgYIKoZIzj0EAwIDSQAwRgIhAIrJvW0F
aAibR6cHeK14sUwKq88/L3igV9TRsxFJh0V4AiEAtdXMgb/z4H0mxqnwMzrNFemH
e2V8RXGF+h2OE0YXir0=
-----END CERTIFICATE-----
