Certificate:
    Data:
        Version: 3 (0x2)
        Serial Number: 4105 (0x1009)
        Signature Algorithm: ecdsa-with-SHA256
        Issuer: C=ES, ST=MA, L=Madrid, O=eProsima, CN=Identity CA/emailAddress=identity-ca@eprosima.com
        Validity
            Not Before: Mar 22 21:55:58 2026 GMT
            Not After : Mar 21 21:55:58 2031 GMT
        Subject: C=ES, ST=MA, L=Tres Cantos, O=eProsima, CN=fastdds-server-mid
        Subject Public Key Info:
            Public Key Algorithm: id-ecPublicKey
                Public-Key: (256 bit)
                pub:
                    04:6f:2b:c4:07:41:d4:fd:3e:01:07:05:89:49:4e:
                    8b:e9:8e:02:d5:b5:27:2c:87:25:ca:b0:8c:76:39:
                    62:71:15:53:1b:60:5b:aa:f0:52:f4:9d:c3:d1:1a:
                    1c:53:b2:e7:e8:a0:11:63:78:01:1f:db:eb:be:27:
                    60:83:db:b3:6e
                ASN1 OID: prime256v1
                NIST CURVE: P-256
        X509v3 extensions:
            X509v3 Basic Constraints: 
                CA:FALSE
            X509v3 Key Usage: critical
                Digital Signature, Key Agreement
            X509v3 Extended Key Usage: 
                TLS Web Client Authentication, TLS Web Server Authentication
            X509v3 Subject Key Identifier: 
                5F:41:CD:FB:9C:89:6A:BE:EA:D2:6C:8E:26:2B:31:06:2C:95:46:78
            X509v3 Authority Key Identifier: 
                92:8F:AA:C6:ED:33:D0:9F:E3:B5:86:BC:D0:6A:1D:CF:00:35:BF:AF
    Signature Algorithm: ecdsa-with-SHA256
    Signature Value:
        30:46:02:21:00:9a:7a:1e:df:35:b9:a2:31:6c:99:9e:d7:cb:
        4b:14:1b:ac:8d:ac:46:e5:9e:38:a8:29:47:62:0f:7d:59:cd:
        b9:02:21:00:f7:b3:84:7f:c4:26:00:88:0e:1f:e6:e5:56:ee:
        39:fa:d9:3c:eb:71:a1:c4:04:d5:da:24:04:43:f2:47:28:e3
-----BEGIN CERTIFICATE-----
MIICSjCCAe+gAwIBAgICEAkwCgYIKoZIzj0EAwIwfTELMAkGA1UEBhMCRVMxCzAJ
BgNVBAgMAk1BMQ8wDQYDVQQHDAZNYWRyaWQxETAPBgNVBAoMCGVQcm9zaW1hMRQw
EgYDVQQDDAtJZGVudGl0eSBDQTEnMCUGCSqGSIb3DQEJARYYaWRlbnRpdHktY2FA
ZXByb3NpbWEuY29tMB4XDTI2MDMyMjIxNTU1OFoXDTMxMDMyMTIxNTU1OFowYDEL
MAkGA1UEBhMCRVMxCzAJBgNVBAgMAk1BMRQwEgYDVQQHDAtUcmVzIENhbnRvczER
MA8GA1UECgwIZVByb3NpbWExGzAZBgNVBAMMEmZhc3RkZHMtc2VydmVyLW1pZDBZ
MBMGByqGSM49AgEGCCqGSM49AwEHA0IABG8rxAdB1P0+AQcFiUlOi+mOAtW1JyyH
JcqwjHY5YnEVUxtgW6rwUvSdw9EaHFOy5+igEWN4AR/b674nYIPbs26jfDB6MAkG
A1UdEwQCMAAwDgYDVR0PAQH/BAQDAgOIMB0GA1UdJQQWMBQGCCsGAQUFBwMCBggr
BgEFBQcDATAdBgNVHQ4EFgQUX0HN+5yJar7q0myOJisxBiyVRngwHwYDVR0jBBgw
FoAUko+qxu0z0J/jtYa80GodzwA1v68wCgYIKoZIzj0EAwIDSQAwRgIhAJp6Ht81
uaIxbJme18tLFBusjaxG5Z44qClHYg99Wc25AiEA97OEf8QmAIgOH+blVu45+tk8
63GhxATV2iQEQ/JHKOM=
-----END CERTIFICATE-----
